; Function Attrs: nounwind sspstrong uwtable
define dso_local void @tcg_gen_concat_i64_i128(ptr noundef %0, ptr noundef %1, ptr noundef %2) local_unnamed_addr #2 {
  %4 = icmp eq ptr %0, %1
  %.pre = tail call align 8 ptr @llvm.threadlocal.address.p0(ptr align 8 @tcg_ctx)
  br i1 %4, label %.tcg_gen_mov_i64.exit_crit_edge, label %5

.tcg_gen_mov_i64.exit_crit_edge:                  ; preds = %3
  %.pre5 = ptrtoint ptr %0 to i64
  br label %tcg_gen_mov_i64.exit

5:                                                ; preds = %3
  %6 = load ptr, ptr %.pre, align 8
  %7 = ptrtoint ptr %0 to i64
  %8 = getelementptr inbounds nuw i8, ptr %6, i64 %7
  %9 = ptrtoint ptr %8 to i64
  %10 = ptrtoint ptr %1 to i64
  %11 = getelementptr inbounds nuw i8, ptr %6, i64 %10
  %12 = ptrtoint ptr %11 to i64
  %13 = tail call ptr @tcg_gen_op2(i32 noundef 63, i32 noundef 1, i64 noundef %9, i64 noundef %12)
  br label %tcg_gen_mov_i64.exit

tcg_gen_mov_i64.exit:                             ; preds = %.tcg_gen_mov_i64.exit_crit_edge, %5
  %.pre-phi6 = phi i64 [ %.pre5, %.tcg_gen_mov_i64.exit_crit_edge ], [ %7, %5 ]
  %14 = load ptr, ptr %.pre, align 8
  %15 = getelementptr inbounds nuw i8, ptr %14, i64 %.pre-phi6
  %16 = getelementptr inbounds nuw i8, ptr %15, i64 56
  %17 = ptrtoint ptr %16 to i64
  %18 = ptrtoint ptr %14 to i64
  %19 = sub i64 %17, %18
  %20 = inttoptr i64 %19 to ptr
  %21 = icmp eq ptr %2, %20
  br i1 %21, label %tcg_gen_mov_i64.exit4, label %22

22:                                               ; preds = %tcg_gen_mov_i64.exit
  %23 = ptrtoint ptr %2 to i64
  %24 = getelementptr inbounds nuw i8, ptr %14, i64 %23
  %25 = ptrtoint ptr %24 to i64
  %26 = tail call ptr @tcg_gen_op2(i32 noundef 63, i32 noundef 1, i64 noundef %17, i64 noundef %25)
  br label %tcg_gen_mov_i64.exit4

tcg_gen_mov_i64.exit4:                            ; preds = %tcg_gen_mov_i64.exit, %22
  ret void
}